((lp0
I1000
aI1000
aI1000
aI1000
aI1000
aI1000
aI1000
aI1000
aI1000
aI1500
aI1000
aI1000
aI1000
aI1000
a(dp1
S'r_ankle_pitch'
p2
(lp3
F0.10737865515199489
aF0.1227184630308513
aF0.08692557798018634
aF0.10737865515199489
aF0.10737865515199489
aF0.12783173232380343
aF0.8232363561652941
aF0.48064731353750095
aF-0.14317154020265985
aF0.05113269292952138
aF0.03579288505066496
aF0.02556634646476069
aF0.010226538585904275
aF0.10737865515199489
asS'r_ankle_roll'
p4
(lp5
F-1.007314050711571
aF-0.7465373167710121
aF-0.7516505860639642
aF-0.7311975088921556
aF-0.7976700097005335
aF-1.2374111688944174
aF-1.222071361015561
aF-1.2169580917226088
aF-1.4010357862688856
aF-0.6749515466696822
aF-0.6544984694978736
aF-0.634045392326065
aF-0.6544984694978736
aF-1.007314050711571
asS'l_hip_roll'
p6
(lp7
F-0.1380582709097077
aF-0.23521038747579834
aF-0.2505501953546547
aF-0.26589000323351114
aF-0.24032365676875048
aF0.2863430804053197
aF0.260776733940559
aF0.32213596545598466
aF0.33236250404188894
aF-0.5675728915176873
aF-0.5931392379824479
aF-0.6084790458613044
aF-0.5880259686894959
aF-0.1380582709097077
asS'l_ankle_pitch'
p8
(lp9
F-0.010226538585904275
aF-0.0409061543436171
aF-0.7567638553569164
aF-0.35792885050664963
aF0.409061543436171
aF0.1891909638392291
aF0.18407769454627695
aF0.056245962222473515
aF0.030679615757712823
aF0.14317154020265985
aF-0.2505501953546547
aF-0.010226538585904275
aF0.14828480949561199
aF-0.010226538585904275
asS'r_knee_pitch'
p10
(lp11
F-0.48064731353750095
aF-0.5266667371740702
aF-0.4908738521234052
aF-0.521553467881118
aF-0.5011003907093095
aF-0.521553467881118
aF1.2834305925309866
aF1.1862784759648959
aF-0.4192880820220753
aF-0.11760519373789917
aF-0.11249192444494703
aF-0.10226538585904275
aF-0.11760519373789917
aF-0.48064731353750095
asS'r_hip_pitch'
p12
(lp13
F-0.5880259686894959
aF-0.5931392379824479
aF-0.5931392379824479
aF-0.5880259686894959
aF-0.5931392379824479
aF-0.5829126993965437
aF0.3528155812136975
aF0.5777994301035916
aF-0.3425890426277932
aF0.15339807878856412
aF0.15851134808151626
aF0.14317154020265985
aF0.056245962222473515
aF-0.5880259686894959
asS'l_knee_pitch'
p14
(lp15
F-0.2863430804053197
aF-0.3119094268700804
aF1.0533334743481404
aF1.191391745257848
aF-0.5113269292952137
aF-0.4346278899009317
aF-0.444854428486836
aF-0.41417481272912315
aF-0.4346278899009317
aF-0.48064731353750095
aF1.191391745257848
aF0.9817477042468103
aF-0.17896442525332482
aF-0.2863430804053197
asS'l_hip_pitch'
p16
(lp17
F0.19430423313218123
aF0.16873788666742054
aF-0.444854428486836
aF-0.9817477042468103
aF-0.03579288505066496
aF0.05113269292952138
aF0.06135923151542565
aF0.33236250404188894
aF0.3374757733348411
aF0.04601942363656924
aF-0.8641425105089112
aF-1.1862784759648959
aF-0.2454369260617026
aF0.19430423313218123
asS'l_ankle_roll'
p18
(lp19
F-0.6596117387908257
aF-0.4908738521234052
aF-0.4857605828304531
aF-0.4959871214163573
aF-0.4857605828304531
aF-0.9203884727313848
aF-1.0993528979847096
aF-1.1709386680860394
aF-1.1607121295001352
aF-0.3016828882841761
aF-0.3119094268700804
aF-0.3170226961630325
aF-0.33236250404188894
aF-0.6596117387908257
asS'r_hip_roll'
p20
(lp21
F-0.02556634646476069
aF-0.14828480949561199
aF-0.1636246173744684
aF-0.15851134808151626
aF-0.17385115596037268
aF0.3528155812136975
aF0.36304211979960177
aF0.3425890426277932
aF0.35792885050664963
aF-0.4959871214163573
aF-0.4959871214163573
aF-0.48064731353750095
aF-0.5113269292952137
aF-0.02556634646476069
asS'r_hip_yaw'
p22
(lp23
F-1.9481556006147644
aF-1.9481556006147644
aF-1.9481556006147644
aF-1.9583821392006686
aF-1.9481556006147644
aF-1.9583821392006686
aF-1.968608677786573
aF-1.9941750242513336
aF-1.9890617549583816
aF-1.9992882935442857
aF-2.00951483213019
aF-2.004401562837238
aF-2.0248546400090466
aF-1.9481556006147644
asS'l_hip_yaw'
p24
(lp25
F1.7763497523715726
aF1.7763497523715726
aF1.7794177139473437
aF1.782485675523115
aF1.7778837331594581
aF1.7748157715836868
aF1.782485675523115
aF1.7901555794625432
aF1.7855536370988863
aF1.7840196563110007
aF1.782485675523115
aF1.7778837331594581
aF1.7840196563110007
aF1.7763497523715726
astp26
.